; generated by Component: ARM Compiler 5.06 update 5 (build 528) Tool: ArmCC [4d3621]
; commandline ArmCC [--c99 --list --split_sections --debug -c --asm --interleave --gnu -o.\objects\sw_dp.o --asm_dir=.\Listings\ --list_dir=.\Listings\ --depend=.\objects\sw_dp.d --cpu=Cortex-M3 --apcs=interwork --no_unaligned_access --diag_suppress=9931 -I..\..\startup -I..\..\cmsis-core -I..\src -I..\..\GIGA32\inc -I..\..\GIGA32\src -I..\..\GIGA32\gd32\peripherals\inc -I..\..\GIGA32\gd32\peripherals\src -I.\RTE\_Target_1 -IF:\software\mdk\ARM\PACK\Keil\STM32F1xx_DFP\2.2.0\Device\Include -IF:\software\mdk\ARM\CMSIS\Include -D__UVISION_VERSION=524 -DSTM32F10X_MD -DDAPLINK_VERSION=242 -DHID_ENDPOINT -DMSC_ENDPOINT -DCDC_ENDPOINT -DDAPLINK_IF -DDAPLINK_BUILD_KEY=0x9B939E8F -DINTERFACE_GD32F103 -DCPU_GD32F103CBT6 -DDAPLINK_HIC_ID=0x97969905 -DBL_TARGET_FLASH -DUSE_STDPERIPH_DRIVER -DGD32F10X_MD -DUSE_HSE_16MHZ --omf_browse=.\objects\sw_dp.crf ..\..\GIGA32\gd32\SW_DP.c]
                          THUMB

                          AREA ||i.SWD_Transfer||, CODE, READONLY, ALIGN=2

                  SWD_Transfer PROC
;;;226    //   return:  ACK[2:0]
;;;227    uint8_t  SWD_Transfer(uint32_t request, uint32_t *data) {
000000  4a03              LDR      r2,|L1.16|
;;;228      if (DAP_Data.fast_clock) {
000002  7852              LDRB     r2,[r2,#1]  ; DAP_Data
000004  b10a              CBZ      r2,|L1.10|
;;;229        return SWD_TransferFast(request, data);
000006  f7ffbffe          B.W      SWD_TransferFast
                  |L1.10|
;;;230      } else {
;;;231        return SWD_TransferSlow(request, data);
00000a  f7ffbffe          B.W      SWD_TransferSlow
;;;232      }
;;;233    }
;;;234    
                          ENDP

00000e  0000              DCW      0x0000
                  |L1.16|
                          DCD      DAP_Data

                          AREA ||i.SWD_TransferFast||, CODE, READONLY, ALIGN=2

                  SWD_TransferFast PROC
;;;215    #define PIN_DELAY() PIN_DELAY_FAST()
;;;216    SWD_TransferFunction(Fast);
000000  e92d4ff0          PUSH     {r4-r11,lr}
000004  4b8b              LDR      r3,|L2.564|
000006  468a              MOV      r10,r1
000008  f44f4780          MOV      r7,#0x4000
00000c  4601              MOV      r1,r0
00000e  601f              STR      r7,[r3,#0]
000010  145e              ASRS     r6,r3,#17
000012  1d1d              ADDS     r5,r3,#4
000014  602e              STR      r6,[r5,#0]
000016  601e              STR      r6,[r3,#0]
000018  07c0              LSLS     r0,r0,#31
00001a  d001              BEQ      |L2.32|
00001c  601f              STR      r7,[r3,#0]
00001e  e000              B        |L2.34|
                  |L2.32|
000020  602f              STR      r7,[r5,#0]
                  |L2.34|
000022  602e              STR      r6,[r5,#0]
000024  601e              STR      r6,[r3,#0]
000026  0848              LSRS     r0,r1,#1
000028  07c4              LSLS     r4,r0,#31
00002a  d001              BEQ      |L2.48|
00002c  601f              STR      r7,[r3,#0]
00002e  e000              B        |L2.50|
                  |L2.48|
000030  602f              STR      r7,[r5,#0]
                  |L2.50|
000032  602e              STR      r6,[r5,#0]
000034  601e              STR      r6,[r3,#0]
000036  180a              ADDS     r2,r1,r0
000038  0888              LSRS     r0,r1,#2
00003a  07c4              LSLS     r4,r0,#31
00003c  d001              BEQ      |L2.66|
00003e  601f              STR      r7,[r3,#0]
000040  e000              B        |L2.68|
                  |L2.66|
000042  602f              STR      r7,[r5,#0]
                  |L2.68|
000044  602e              STR      r6,[r5,#0]
000046  601e              STR      r6,[r3,#0]
000048  4402              ADD      r2,r2,r0
00004a  08c8              LSRS     r0,r1,#3
00004c  07c4              LSLS     r4,r0,#31
00004e  d001              BEQ      |L2.84|
000050  601f              STR      r7,[r3,#0]
000052  e000              B        |L2.86|
                  |L2.84|
000054  602f              STR      r7,[r5,#0]
                  |L2.86|
000056  602e              STR      r6,[r5,#0]
000058  601e              STR      r6,[r3,#0]
00005a  4410              ADD      r0,r0,r2
00005c  07c0              LSLS     r0,r0,#31
00005e  d001              BEQ      |L2.100|
000060  601f              STR      r7,[r3,#0]
000062  e000              B        |L2.102|
                  |L2.100|
000064  602f              STR      r7,[r5,#0]
                  |L2.102|
000066  602e              STR      r6,[r5,#0]
000068  601e              STR      r6,[r3,#0]
00006a  602f              STR      r7,[r5,#0]
00006c  602e              STR      r6,[r5,#0]
00006e  601e              STR      r6,[r3,#0]
000070  601f              STR      r7,[r3,#0]
000072  602e              STR      r6,[r5,#0]
000074  601e              STR      r6,[r3,#0]
000076  f8df91bc          LDR      r9,|L2.564|
00007a  f1a90910          SUB      r9,r9,#0x10
00007e  f8d92004          LDR      r2,[r9,#4]
000082  f0226270          BIC      r2,r2,#0xf000000
000086  f8c92004          STR      r2,[r9,#4]
00008a  f8d92004          LDR      r2,[r9,#4]
00008e  f8c92004          STR      r2,[r9,#4]
000092  601f              STR      r7,[r3,#0]
000094  f8dfb1a0          LDR      r11,|L2.568|
000098  f89b0014          LDRB     r0,[r11,#0x14]  ; DAP_Data
00009c  1e02              SUBS     r2,r0,#0
00009e  d003              BEQ      |L2.168|
                  |L2.160|
0000a0  602e              STR      r6,[r5,#0]
0000a2  601e              STR      r6,[r3,#0]
0000a4  1e40              SUBS     r0,r0,#1
0000a6  d1fb              BNE      |L2.160|
                  |L2.168|
0000a8  602e              STR      r6,[r5,#0]
0000aa  f8df8188          LDR      r8,|L2.564|
0000ae  f1a80808          SUB      r8,r8,#8
0000b2  f8d80000          LDR      r0,[r8,#0]
0000b6  601e              STR      r6,[r3,#0]
0000b8  f3c03000          UBFX     r0,r0,#12,#1
0000bc  602e              STR      r6,[r5,#0]
0000be  f8d84000          LDR      r4,[r8,#0]
0000c2  601e              STR      r6,[r3,#0]
0000c4  f3c43400          UBFX     r4,r4,#12,#1
0000c8  ea400044          ORR      r0,r0,r4,LSL #1
0000cc  602e              STR      r6,[r5,#0]
0000ce  f8d84000          LDR      r4,[r8,#0]
0000d2  601e              STR      r6,[r3,#0]
0000d4  f3c43400          UBFX     r4,r4,#12,#1
0000d8  ea400084          ORR      r0,r0,r4,LSL #2
0000dc  2801              CMP      r0,#1
0000de  d017              BEQ      |L2.272|
0000e0  2802              CMP      r0,#2
0000e2  d07c              BEQ      |L2.478|
0000e4  2804              CMP      r0,#4
0000e6  d07a              BEQ      |L2.478|
0000e8  3221              ADDS     r2,r2,#0x21
0000ea  d003              BEQ      |L2.244|
                  |L2.236|
0000ec  602e              STR      r6,[r5,#0]
0000ee  601e              STR      r6,[r3,#0]
0000f0  1e52              SUBS     r2,r2,#1
0000f2  d1fb              BNE      |L2.236|
                  |L2.244|
0000f4  f8d92004          LDR      r2,[r9,#4]
0000f8  f0226270          BIC      r2,r2,#0xf000000
0000fc  f8c92004          STR      r2,[r9,#4]
000100  f8d92004          LDR      r2,[r9,#4]
000104  f0427240          ORR      r2,r2,#0x3000000
000108  f8c92004          STR      r2,[r9,#4]
00010c  602f              STR      r7,[r5,#0]
00010e  e08e              B        |L2.558|
                  |L2.272|
000110  0789              LSLS     r1,r1,#30
000112  d531              BPL      |L2.376|
000114  2400              MOVS     r4,#0
000116  4622              MOV      r2,r4
000118  2120              MOVS     r1,#0x20
                  |L2.282|
00011a  602e              STR      r6,[r5,#0]
00011c  f8d8c000          LDR      r12,[r8,#0]
000120  601e              STR      r6,[r3,#0]
000122  f3cc3c00          UBFX     r12,r12,#12,#1
000126  0864              LSRS     r4,r4,#1
000128  4462              ADD      r2,r2,r12
00012a  ea4474cc          ORR      r4,r4,r12,LSL #31
00012e  1e49              SUBS     r1,r1,#1
000130  d1f3              BNE      |L2.282|
000132  602e              STR      r6,[r5,#0]
000134  f8d81000          LDR      r1,[r8,#0]
000138  601e              STR      r6,[r3,#0]
00013a  ea823211          EOR      r2,r2,r1,LSR #12
00013e  07d1              LSLS     r1,r2,#31
000140  d000              BEQ      |L2.324|
000142  2008              MOVS     r0,#8
                  |L2.324|
000144  f1ba0f00          CMP      r10,#0
000148  d001              BEQ      |L2.334|
00014a  f8ca4000          STR      r4,[r10,#0]
                  |L2.334|
00014e  f89b1014          LDRB     r1,[r11,#0x14]  ; DAP_Data
000152  b119              CBZ      r1,|L2.348|
                  |L2.340|
000154  602e              STR      r6,[r5,#0]
000156  601e              STR      r6,[r3,#0]
000158  1e49              SUBS     r1,r1,#1
00015a  d1fb              BNE      |L2.340|
                  |L2.348|
00015c  f8d92004          LDR      r2,[r9,#4]
000160  f0226270          BIC      r2,r2,#0xf000000
000164  f8c92004          STR      r2,[r9,#4]
000168  f8d92004          LDR      r2,[r9,#4]
00016c  f0427240          ORR      r2,r2,#0x3000000
000170  f8c92004          STR      r2,[r9,#4]
000174  602f              STR      r7,[r5,#0]
000176  e029              B        |L2.460|
                  |L2.376|
000178  b11a              CBZ      r2,|L2.386|
00017a  602e              STR      r6,[r5,#0]
00017c  601e              STR      r6,[r3,#0]
00017e  1e52              SUBS     r2,r2,#1
000180  e7fa              B        |L2.376|
                  |L2.386|
000182  f8d92004          LDR      r2,[r9,#4]
000186  f0226270          BIC      r2,r2,#0xf000000
00018a  f8c92004          STR      r2,[r9,#4]
00018e  f8d92004          LDR      r2,[r9,#4]
000192  f0427240          ORR      r2,r2,#0x3000000
000196  f8c92004          STR      r2,[r9,#4]
00019a  602f              STR      r7,[r5,#0]
00019c  2400              MOVS     r4,#0
00019e  f8da1000          LDR      r1,[r10,#0]
0001a2  2220              MOVS     r2,#0x20
                  |L2.420|
0001a4  ea5f7cc1          LSLS     r12,r1,#31
0001a8  d001              BEQ      |L2.430|
0001aa  601f              STR      r7,[r3,#0]
0001ac  e000              B        |L2.432|
                  |L2.430|
0001ae  602f              STR      r7,[r5,#0]
                  |L2.432|
0001b0  602e              STR      r6,[r5,#0]
0001b2  601e              STR      r6,[r3,#0]
0001b4  440c              ADD      r4,r4,r1
0001b6  0849              LSRS     r1,r1,#1
0001b8  1e52              SUBS     r2,r2,#1
0001ba  d1f3              BNE      |L2.420|
0001bc  07e1              LSLS     r1,r4,#31
0001be  d002              BEQ      |L2.454|
0001c0  601f              STR      r7,[r3,#0]
0001c2  e001              B        |L2.456|
0001c4  e00b              B        |L2.478|
                  |L2.454|
0001c6  602f              STR      r7,[r5,#0]
                  |L2.456|
0001c8  602e              STR      r6,[r5,#0]
0001ca  601e              STR      r6,[r3,#0]
                  |L2.460|
0001cc  f89b1008          LDRB     r1,[r11,#8]  ; DAP_Data
0001d0  b369              CBZ      r1,|L2.558|
0001d2  602f              STR      r7,[r5,#0]
                  |L2.468|
0001d4  602e              STR      r6,[r5,#0]
0001d6  601e              STR      r6,[r3,#0]
0001d8  1e49              SUBS     r1,r1,#1
0001da  d1fb              BNE      |L2.468|
0001dc  e027              B        |L2.558|
                  |L2.478|
0001de  f89b4015          LDRB     r4,[r11,#0x15]  ; DAP_Data
0001e2  b14c              CBZ      r4,|L2.504|
0001e4  ea5f7c81          LSLS     r12,r1,#30
0001e8  d506              BPL      |L2.504|
0001ea  f04f0c21          MOV      r12,#0x21
                  |L2.494|
0001ee  602e              STR      r6,[r5,#0]
0001f0  601e              STR      r6,[r3,#0]
0001f2  f1bc0c01          SUBS     r12,r12,#1
0001f6  d1fa              BNE      |L2.494|
                  |L2.504|
0001f8  b11a              CBZ      r2,|L2.514|
0001fa  602e              STR      r6,[r5,#0]
0001fc  601e              STR      r6,[r3,#0]
0001fe  1e52              SUBS     r2,r2,#1
000200  e7fa              B        |L2.504|
                  |L2.514|
000202  f8d9c004          LDR      r12,[r9,#4]
000206  f02c6c70          BIC      r12,r12,#0xf000000
00020a  f8c9c004          STR      r12,[r9,#4]
00020e  f8d9c004          LDR      r12,[r9,#4]
000212  f04c7c40          ORR      r12,r12,#0x3000000
000216  f8c9c004          STR      r12,[r9,#4]
00021a  602f              STR      r7,[r5,#0]
00021c  b13c              CBZ      r4,|L2.558|
00021e  0789              LSLS     r1,r1,#30
000220  d405              BMI      |L2.558|
000222  602f              STR      r7,[r5,#0]
000224  2121              MOVS     r1,#0x21
                  |L2.550|
000226  602e              STR      r6,[r5,#0]
000228  601e              STR      r6,[r3,#0]
00022a  1e49              SUBS     r1,r1,#1
00022c  d1fb              BNE      |L2.550|
                  |L2.558|
00022e  601f              STR      r7,[r3,#0]
000230  e8bd8ff0          POP      {r4-r11,pc}
;;;217    
                          ENDP

                  |L2.564|
                          DCD      0x40010c10
                  |L2.568|
                          DCD      DAP_Data

                          AREA ||i.SWD_TransferSlow||, CODE, READONLY, ALIGN=2

                  SWD_TransferSlow PROC
;;;219    #define PIN_DELAY() PIN_DELAY_SLOW(DAP_Data.clock_delay)
;;;220    SWD_TransferFunction(Slow);
000000  e92d4ff0          PUSH     {r4-r11,lr}
000004  4af3              LDR      r2,|L3.980|
000006  4604              MOV      r4,r0
000008  f44f4080          MOV      r0,#0x4000
00000c  468b              MOV      r11,r1
00000e  2600              MOVS     r6,#0
000010  6010              STR      r0,[r2,#0]
000012  1d17              ADDS     r7,r2,#4
000014  f44f5c00          MOV      r12,#0x2000
000018  f8c7c000          STR      r12,[r7,#0]
00001c  4bee              LDR      r3,|L3.984|
00001e  6859              LDR      r1,[r3,#4]  ; DAP_Data
000020  460d              MOV      r5,r1
                  |L3.34|
000022  1e6d              SUBS     r5,r5,#1
000024  d1fd              BNE      |L3.34|
000026  f8c2c000          STR      r12,[r2,#0]
00002a  460d              MOV      r5,r1
                  |L3.44|
00002c  1e6d              SUBS     r5,r5,#1
00002e  d1fd              BNE      |L3.44|
000030  07e5              LSLS     r5,r4,#31
000032  d001              BEQ      |L3.56|
000034  6010              STR      r0,[r2,#0]
000036  e000              B        |L3.58|
                  |L3.56|
000038  6038              STR      r0,[r7,#0]
                  |L3.58|
00003a  f8c7c000          STR      r12,[r7,#0]
00003e  460d              MOV      r5,r1
                  |L3.64|
000040  1e6d              SUBS     r5,r5,#1
000042  d1fd              BNE      |L3.64|
000044  f8c2c000          STR      r12,[r2,#0]
000048  460d              MOV      r5,r1
                  |L3.74|
00004a  1e6d              SUBS     r5,r5,#1
00004c  d1fd              BNE      |L3.74|
00004e  eb060804          ADD      r8,r6,r4
000052  0866              LSRS     r6,r4,#1
000054  07f5              LSLS     r5,r6,#31
000056  d001              BEQ      |L3.92|
000058  6010              STR      r0,[r2,#0]
00005a  e000              B        |L3.94|
                  |L3.92|
00005c  6038              STR      r0,[r7,#0]
                  |L3.94|
00005e  f8c7c000          STR      r12,[r7,#0]
000062  460d              MOV      r5,r1
                  |L3.100|
000064  1e6d              SUBS     r5,r5,#1
000066  d1fd              BNE      |L3.100|
000068  f8c2c000          STR      r12,[r2,#0]
00006c  460d              MOV      r5,r1
                  |L3.110|
00006e  1e6d              SUBS     r5,r5,#1
000070  d1fd              BNE      |L3.110|
000072  4446              ADD      r6,r6,r8
000074  08a5              LSRS     r5,r4,#2
000076  ea5f78c5          LSLS     r8,r5,#31
00007a  d001              BEQ      |L3.128|
00007c  6010              STR      r0,[r2,#0]
00007e  e000              B        |L3.130|
                  |L3.128|
000080  6038              STR      r0,[r7,#0]
                  |L3.130|
000082  f8c7c000          STR      r12,[r7,#0]
000086  4688              MOV      r8,r1
                  |L3.136|
000088  f1b80801          SUBS     r8,r8,#1
00008c  d1fc              BNE      |L3.136|
00008e  f8c2c000          STR      r12,[r2,#0]
000092  4688              MOV      r8,r1
                  |L3.148|
000094  f1b80801          SUBS     r8,r8,#1
000098  d1fc              BNE      |L3.148|
00009a  442e              ADD      r6,r6,r5
00009c  08e5              LSRS     r5,r4,#3
00009e  ea5f78c5          LSLS     r8,r5,#31
0000a2  d001              BEQ      |L3.168|
0000a4  6010              STR      r0,[r2,#0]
0000a6  e000              B        |L3.170|
                  |L3.168|
0000a8  6038              STR      r0,[r7,#0]
                  |L3.170|
0000aa  f8c7c000          STR      r12,[r7,#0]
0000ae  4688              MOV      r8,r1
                  |L3.176|
0000b0  f1b80801          SUBS     r8,r8,#1
0000b4  d1fc              BNE      |L3.176|
0000b6  f8c2c000          STR      r12,[r2,#0]
0000ba  4688              MOV      r8,r1
                  |L3.188|
0000bc  f1b80801          SUBS     r8,r8,#1
0000c0  d1fc              BNE      |L3.188|
0000c2  4435              ADD      r5,r5,r6
0000c4  07ed              LSLS     r5,r5,#31
0000c6  d001              BEQ      |L3.204|
0000c8  6010              STR      r0,[r2,#0]
0000ca  e000              B        |L3.206|
                  |L3.204|
0000cc  6038              STR      r0,[r7,#0]
                  |L3.206|
0000ce  f8c7c000          STR      r12,[r7,#0]
0000d2  460d              MOV      r5,r1
                  |L3.212|
0000d4  1e6d              SUBS     r5,r5,#1
0000d6  d1fd              BNE      |L3.212|
0000d8  f8c2c000          STR      r12,[r2,#0]
0000dc  460d              MOV      r5,r1
                  |L3.222|
0000de  1e6d              SUBS     r5,r5,#1
0000e0  d1fd              BNE      |L3.222|
0000e2  6038              STR      r0,[r7,#0]
0000e4  f8c7c000          STR      r12,[r7,#0]
0000e8  460d              MOV      r5,r1
                  |L3.234|
0000ea  1e6d              SUBS     r5,r5,#1
0000ec  d1fd              BNE      |L3.234|
0000ee  f8c2c000          STR      r12,[r2,#0]
0000f2  460d              MOV      r5,r1
                  |L3.244|
0000f4  1e6d              SUBS     r5,r5,#1
0000f6  d1fd              BNE      |L3.244|
0000f8  6010              STR      r0,[r2,#0]
0000fa  f8c7c000          STR      r12,[r7,#0]
0000fe  460d              MOV      r5,r1
                  |L3.256|
000100  1e6d              SUBS     r5,r5,#1
000102  d1fd              BNE      |L3.256|
000104  f8c2c000          STR      r12,[r2,#0]
000108  460d              MOV      r5,r1
                  |L3.266|
00010a  1e6d              SUBS     r5,r5,#1
00010c  d1fd              BNE      |L3.266|
00010e  f8dfa2c4          LDR      r10,|L3.980|
000112  f1aa0a10          SUB      r10,r10,#0x10
000116  f8da6004          LDR      r6,[r10,#4]
00011a  f0266670          BIC      r6,r6,#0xf000000
00011e  f8ca6004          STR      r6,[r10,#4]
000122  f8da6004          LDR      r6,[r10,#4]
000126  f8ca6004          STR      r6,[r10,#4]
00012a  4681              MOV      r9,r0
00012c  6010              STR      r0,[r2,#0]
00012e  7d1d              LDRB     r5,[r3,#0x14]  ; DAP_Data
000130  1e2e              SUBS     r6,r5,#0
000132  d00b              BEQ      |L3.332|
                  |L3.308|
000134  f8c7c000          STR      r12,[r7,#0]
000138  4608              MOV      r0,r1
                  |L3.314|
00013a  1e40              SUBS     r0,r0,#1
00013c  d1fd              BNE      |L3.314|
00013e  f8c2c000          STR      r12,[r2,#0]
000142  4608              MOV      r0,r1
                  |L3.324|
000144  1e40              SUBS     r0,r0,#1
000146  d1fd              BNE      |L3.324|
000148  1e6d              SUBS     r5,r5,#1
00014a  d1f3              BNE      |L3.308|
                  |L3.332|
00014c  f8c7c000          STR      r12,[r7,#0]
000150  4608              MOV      r0,r1
                  |L3.338|
000152  1e40              SUBS     r0,r0,#1
000154  d1fd              BNE      |L3.338|
000156  4d9f              LDR      r5,|L3.980|
000158  3d08              SUBS     r5,r5,#8
00015a  6828              LDR      r0,[r5,#0]
00015c  f8c2c000          STR      r12,[r2,#0]
000160  f3c03000          UBFX     r0,r0,#12,#1
000164  4688              MOV      r8,r1
                  |L3.358|
000166  f1b80801          SUBS     r8,r8,#1
00016a  d1fc              BNE      |L3.358|
00016c  f8c7c000          STR      r12,[r7,#0]
000170  460b              MOV      r3,r1
                  |L3.370|
000172  1e5b              SUBS     r3,r3,#1
000174  d1fd              BNE      |L3.370|
000176  682b              LDR      r3,[r5,#0]
000178  f8c2c000          STR      r12,[r2,#0]
00017c  f3c33300          UBFX     r3,r3,#12,#1
000180  4688              MOV      r8,r1
                  |L3.386|
000182  f1b80801          SUBS     r8,r8,#1
000186  d1fc              BNE      |L3.386|
000188  ea400043          ORR      r0,r0,r3,LSL #1
00018c  f8c7c000          STR      r12,[r7,#0]
000190  460b              MOV      r3,r1
                  |L3.402|
000192  1e5b              SUBS     r3,r3,#1
000194  d1fd              BNE      |L3.402|
000196  682b              LDR      r3,[r5,#0]
000198  46ae              MOV      lr,r5
00019a  f3c33300          UBFX     r3,r3,#12,#1
00019e  f8c2c000          STR      r12,[r2,#0]
0001a2  460d              MOV      r5,r1
                  |L3.420|
0001a4  1e6d              SUBS     r5,r5,#1
0001a6  d1fd              BNE      |L3.420|
0001a8  ea400083          ORR      r0,r0,r3,LSL #2
0001ac  2801              CMP      r0,#1
0001ae  d023              BEQ      |L3.504|
0001b0  2802              CMP      r0,#2
0001b2  d06f              BEQ      |L3.660|
0001b4  2804              CMP      r0,#4
0001b6  d06d              BEQ      |L3.660|
0001b8  3621              ADDS     r6,r6,#0x21
0001ba  d00b              BEQ      |L3.468|
                  |L3.444|
0001bc  f8c7c000          STR      r12,[r7,#0]
0001c0  460b              MOV      r3,r1
                  |L3.450|
0001c2  1e5b              SUBS     r3,r3,#1
0001c4  d1fd              BNE      |L3.450|
0001c6  f8c2c000          STR      r12,[r2,#0]
0001ca  460b              MOV      r3,r1
                  |L3.460|
0001cc  1e5b              SUBS     r3,r3,#1
0001ce  d1fd              BNE      |L3.460|
0001d0  1e76              SUBS     r6,r6,#1
0001d2  d1f3              BNE      |L3.444|
                  |L3.468|
0001d4  f8da3004          LDR      r3,[r10,#4]
0001d8  f0236370          BIC      r3,r3,#0xf000000
0001dc  f8ca3004          STR      r3,[r10,#4]
0001e0  f8da3004          LDR      r3,[r10,#4]
0001e4  f0437340          ORR      r3,r3,#0x3000000
0001e8  f8ca3004          STR      r3,[r10,#4]
0001ec  4649              MOV      r1,r9
0001ee  f8c79000          STR      r9,[r7,#0]
                  |L3.498|
0001f2  6011              STR      r1,[r2,#0]
                  |L3.500|
0001f4  e8bd8ff0          POP      {r4-r11,pc}
                  |L3.504|
0001f8  07a3              LSLS     r3,r4,#30
0001fa  d54c              BPL      |L3.662|
0001fc  f04f0800          MOV      r8,#0
000200  4645              MOV      r5,r8
000202  2420              MOVS     r4,#0x20
                  |L3.516|
000204  f8c7c000          STR      r12,[r7,#0]
000208  460b              MOV      r3,r1
                  |L3.522|
00020a  1e5b              SUBS     r3,r3,#1
00020c  d1fd              BNE      |L3.522|
00020e  f8de3000          LDR      r3,[lr,#0]
000212  f8c2c000          STR      r12,[r2,#0]
000216  f3c33600          UBFX     r6,r3,#12,#1
00021a  460b              MOV      r3,r1
                  |L3.540|
00021c  1e5b              SUBS     r3,r3,#1
00021e  d1fd              BNE      |L3.540|
000220  ea4f0358          LSR      r3,r8,#1
000224  4435              ADD      r5,r5,r6
000226  ea4378c6          ORR      r8,r3,r6,LSL #31
00022a  1e64              SUBS     r4,r4,#1
00022c  d1ea              BNE      |L3.516|
00022e  4664              MOV      r4,r12
000230  f8c7c000          STR      r12,[r7,#0]
000234  4e68              LDR      r6,|L3.984|
000236  460b              MOV      r3,r1
                  |L3.568|
000238  1e5b              SUBS     r3,r3,#1
00023a  d1fd              BNE      |L3.568|
00023c  f8de3000          LDR      r3,[lr,#0]
000240  6014              STR      r4,[r2,#0]
000242  f3c33300          UBFX     r3,r3,#12,#1
                  |L3.582|
000246  1e49              SUBS     r1,r1,#1
000248  d1fd              BNE      |L3.582|
00024a  405d              EORS     r5,r5,r3
00024c  07e9              LSLS     r1,r5,#31
00024e  d000              BEQ      |L3.594|
000250  2008              MOVS     r0,#8
                  |L3.594|
000252  f1bb0f00          CMP      r11,#0
000256  d001              BEQ      |L3.604|
000258  f8cb8000          STR      r8,[r11,#0]
                  |L3.604|
00025c  7d33              LDRB     r3,[r6,#0x14]  ; DAP_Data
00025e  b153              CBZ      r3,|L3.630|
000260  6875              LDR      r5,[r6,#4]
                  |L3.610|
000262  603c              STR      r4,[r7,#0]
000264  4629              MOV      r1,r5
                  |L3.614|
000266  1e49              SUBS     r1,r1,#1
000268  d1fd              BNE      |L3.614|
00026a  6014              STR      r4,[r2,#0]
00026c  4629              MOV      r1,r5
                  |L3.622|
00026e  1e49              SUBS     r1,r1,#1
000270  d1fd              BNE      |L3.622|
000272  1e5b              SUBS     r3,r3,#1
000274  d1f5              BNE      |L3.610|
                  |L3.630|
000276  f8da3004          LDR      r3,[r10,#4]
00027a  f0236370          BIC      r3,r3,#0xf000000
00027e  f8ca3004          STR      r3,[r10,#4]
000282  f8da3004          LDR      r3,[r10,#4]
000286  f0437340          ORR      r3,r3,#0x3000000
00028a  f8ca3004          STR      r3,[r10,#4]
00028e  f8c79000          STR      r9,[r7,#0]
000292  e045              B        |L3.800|
                  |L3.660|
000294  e058              B        |L3.840|
                  |L3.662|
000296  b15e              CBZ      r6,|L3.688|
000298  f8c7c000          STR      r12,[r7,#0]
00029c  460b              MOV      r3,r1
                  |L3.670|
00029e  1e5b              SUBS     r3,r3,#1
0002a0  d1fd              BNE      |L3.670|
0002a2  f8c2c000          STR      r12,[r2,#0]
0002a6  460b              MOV      r3,r1
                  |L3.680|
0002a8  1e5b              SUBS     r3,r3,#1
0002aa  d1fd              BNE      |L3.680|
0002ac  1e76              SUBS     r6,r6,#1
0002ae  e7f2              B        |L3.662|
                  |L3.688|
0002b0  f8da4004          LDR      r4,[r10,#4]
0002b4  f0246470          BIC      r4,r4,#0xf000000
0002b8  f8ca4004          STR      r4,[r10,#4]
0002bc  f8da4004          LDR      r4,[r10,#4]
0002c0  f0447440          ORR      r4,r4,#0x3000000
0002c4  f8ca4004          STR      r4,[r10,#4]
0002c8  46c8              MOV      r8,r9
0002ca  f8c79000          STR      r9,[r7,#0]
0002ce  2600              MOVS     r6,#0
0002d0  f8db3000          LDR      r3,[r11,#0]
0002d4  2520              MOVS     r5,#0x20
                  |L3.726|
0002d6  07dc              LSLS     r4,r3,#31
0002d8  d002              BEQ      |L3.736|
0002da  f8c28000          STR      r8,[r2,#0]
0002de  e001              B        |L3.740|
                  |L3.736|
0002e0  f8c78000          STR      r8,[r7,#0]
                  |L3.740|
0002e4  f8c7c000          STR      r12,[r7,#0]
0002e8  460c              MOV      r4,r1
                  |L3.746|
0002ea  1e64              SUBS     r4,r4,#1
0002ec  d1fd              BNE      |L3.746|
0002ee  f8c2c000          STR      r12,[r2,#0]
0002f2  460c              MOV      r4,r1
                  |L3.756|
0002f4  1e64              SUBS     r4,r4,#1
0002f6  d1fd              BNE      |L3.756|
0002f8  441e              ADD      r6,r6,r3
0002fa  085b              LSRS     r3,r3,#1
0002fc  1e6d              SUBS     r5,r5,#1
0002fe  d1ea              BNE      |L3.726|
000300  07f3              LSLS     r3,r6,#31
000302  d002              BEQ      |L3.778|
000304  f8c28000          STR      r8,[r2,#0]
000308  e001              B        |L3.782|
                  |L3.778|
00030a  f8c78000          STR      r8,[r7,#0]
                  |L3.782|
00030e  4664              MOV      r4,r12
000310  f8c7c000          STR      r12,[r7,#0]
000314  460b              MOV      r3,r1
                  |L3.790|
000316  1e5b              SUBS     r3,r3,#1
000318  d1fd              BNE      |L3.790|
00031a  6014              STR      r4,[r2,#0]
                  |L3.796|
00031c  1e49              SUBS     r1,r1,#1
00031e  d1fd              BNE      |L3.796|
                  |L3.800|
000320  492d              LDR      r1,|L3.984|
000322  7a0c              LDRB     r4,[r1,#8]  ; DAP_Data
000324  b174              CBZ      r4,|L3.836|
000326  f8c79000          STR      r9,[r7,#0]
00032a  684d              LDR      r5,[r1,#4]
                  |L3.812|
00032c  f8c7c000          STR      r12,[r7,#0]
000330  4629              MOV      r1,r5
                  |L3.818|
000332  1e49              SUBS     r1,r1,#1
000334  d1fd              BNE      |L3.818|
000336  f8c2c000          STR      r12,[r2,#0]
00033a  462b              MOV      r3,r5
                  |L3.828|
00033c  1e5b              SUBS     r3,r3,#1
00033e  d1fd              BNE      |L3.828|
000340  1e64              SUBS     r4,r4,#1
000342  d1f3              BNE      |L3.812|
                  |L3.836|
000344  4649              MOV      r1,r9
000346  e754              B        |L3.498|
                  |L3.840|
000348  4b23              LDR      r3,|L3.984|
00034a  f8938015          LDRB     r8,[r3,#0x15]  ; DAP_Data
00034e  f1b80f00          CMP      r8,#0
000352  d00e              BEQ      |L3.882|
000354  07a3              LSLS     r3,r4,#30
000356  d50c              BPL      |L3.882|
000358  2521              MOVS     r5,#0x21
                  |L3.858|
00035a  f8c7c000          STR      r12,[r7,#0]
00035e  460b              MOV      r3,r1
                  |L3.864|
000360  1e5b              SUBS     r3,r3,#1
000362  d1fd              BNE      |L3.864|
000364  f8c2c000          STR      r12,[r2,#0]
000368  460b              MOV      r3,r1
                  |L3.874|
00036a  1e5b              SUBS     r3,r3,#1
00036c  d1fd              BNE      |L3.874|
00036e  1e6d              SUBS     r5,r5,#1
000370  d1f3              BNE      |L3.858|
                  |L3.882|
000372  b15e              CBZ      r6,|L3.908|
000374  f8c7c000          STR      r12,[r7,#0]
000378  460b              MOV      r3,r1
                  |L3.890|
00037a  1e5b              SUBS     r3,r3,#1
00037c  d1fd              BNE      |L3.890|
00037e  f8c2c000          STR      r12,[r2,#0]
000382  460b              MOV      r3,r1
                  |L3.900|
000384  1e5b              SUBS     r3,r3,#1
000386  d1fd              BNE      |L3.900|
000388  1e76              SUBS     r6,r6,#1
00038a  e7f2              B        |L3.882|
                  |L3.908|
00038c  f8da5004          LDR      r5,[r10,#4]
000390  f0256570          BIC      r5,r5,#0xf000000
000394  f8ca5004          STR      r5,[r10,#4]
000398  f8da5004          LDR      r5,[r10,#4]
00039c  f0457540          ORR      r5,r5,#0x3000000
0003a0  f8ca5004          STR      r5,[r10,#4]
0003a4  464d              MOV      r5,r9
0003a6  f8c79000          STR      r9,[r7,#0]
0003aa  f1b80f00          CMP      r8,#0
0003ae  d00f              BEQ      |L3.976|
0003b0  07a3              LSLS     r3,r4,#30
0003b2  d40d              BMI      |L3.976|
0003b4  603d              STR      r5,[r7,#0]
0003b6  2421              MOVS     r4,#0x21
                  |L3.952|
0003b8  f8c7c000          STR      r12,[r7,#0]
0003bc  460b              MOV      r3,r1
                  |L3.958|
0003be  1e5b              SUBS     r3,r3,#1
0003c0  d1fd              BNE      |L3.958|
0003c2  f8c2c000          STR      r12,[r2,#0]
0003c6  460b              MOV      r3,r1
                  |L3.968|
0003c8  1e5b              SUBS     r3,r3,#1
0003ca  d1fd              BNE      |L3.968|
0003cc  1e64              SUBS     r4,r4,#1
0003ce  d1f3              BNE      |L3.952|
                  |L3.976|
0003d0  6015              STR      r5,[r2,#0]
0003d2  e70f              B        |L3.500|
;;;221    
                          ENDP

                  |L3.980|
                          DCD      0x40010c10
                  |L3.984|
                          DCD      DAP_Data

                          AREA ||i.SWJ_Sequence||, CODE, READONLY, ALIGN=2

                  SWJ_Sequence PROC
;;;58     #if ((DAP_SWD != 0) || (DAP_JTAG != 0))
;;;59     void SWJ_Sequence (uint32_t count, uint8_t *data) {
000000  b5f0              PUSH     {r4-r7,lr}
;;;60       uint32_t val;
;;;61       uint32_t n;
;;;62     
;;;63       val = 0;
;;;64       n = 0;
;;;65       while (count--) {
;;;66         if (n == 0) {
;;;67           val = *data++;
;;;68           n = 8;
;;;69         }
;;;70         if (val & 1) {
;;;71           PIN_SWDIO_TMS_SET();
;;;72         } else {
;;;73           PIN_SWDIO_TMS_CLR();
;;;74         }
;;;75         SW_CLOCK_CYCLE();
000002  4c14              LDR      r4,|L4.84|
000004  2300              MOVS     r3,#0                 ;63
000006  f8dfc048          LDR      r12,|L4.80|
00000a  f44f4780          MOV      r7,#0x4000            ;63
00000e  461a              MOV      r2,r3                 ;64
000010  f1ac0e04          SUB      lr,r12,#4             ;64
000014  107e              ASRS     r6,r7,#1              ;64
000016  6865              LDR      r5,[r4,#4]            ;59
000018  e016              B        |L4.72|
                  |L4.26|
00001a  b912              CBNZ     r2,|L4.34|
00001c  f8113b01          LDRB     r3,[r1],#1            ;67
000020  2208              MOVS     r2,#8                 ;68
                  |L4.34|
000022  07dc              LSLS     r4,r3,#31             ;70
000024  d002              BEQ      |L4.44|
000026  f8ce7000          STR      r7,[lr,#0]            ;70
00002a  e001              B        |L4.48|
                  |L4.44|
00002c  f8cc7000          STR      r7,[r12,#0]           ;71
                  |L4.48|
000030  f8cc6000          STR      r6,[r12,#0]           ;71
000034  462c              MOV      r4,r5                 ;71
                  |L4.54|
000036  1e64              SUBS     r4,r4,#1              ;71
000038  d1fd              BNE      |L4.54|
00003a  f8ce6000          STR      r6,[lr,#0]            ;71
00003e  462c              MOV      r4,r5                 ;71
                  |L4.64|
000040  1e64              SUBS     r4,r4,#1              ;71
000042  d1fd              BNE      |L4.64|
;;;76         val >>= 1;
000044  085b              LSRS     r3,r3,#1
000046  1e52              SUBS     r2,r2,#1
                  |L4.72|
000048  1e40              SUBS     r0,r0,#1
00004a  d2e6              BCS      |L4.26|
;;;77         n--;
;;;78       }
;;;79     }
00004c  bdf0              POP      {r4-r7,pc}
;;;80     #endif
                          ENDP

00004e  0000              DCW      0x0000
                  |L4.80|
                          DCD      0x40010c14
                  |L4.84|
                          DCD      DAP_Data

;*** Start embedded assembler ***

#line 1 "..\\..\\GIGA32\\gd32\\SW_DP.c"
	AREA ||.rev16_text||, CODE
	THUMB
	EXPORT |__asm___7_SW_DP_c_8b14f5ee____REV16|
#line 129 "..\\..\\cmsis-core\\core_cmInstr.h"
|__asm___7_SW_DP_c_8b14f5ee____REV16| PROC
#line 130

 rev16 r0, r0
 bx lr
	ENDP
	AREA ||.revsh_text||, CODE
	THUMB
	EXPORT |__asm___7_SW_DP_c_8b14f5ee____REVSH|
#line 144
|__asm___7_SW_DP_c_8b14f5ee____REVSH| PROC
#line 145

 revsh r0, r0
 bx lr
	ENDP

;*** End   embedded assembler ***
